; Function Attrs: mustprogress nounwind uwtable
define hidden void @_ZN4llvh11raw_ostream14flush_nonemptyEv(ptr noundef nonnull align 8 dereferenceable(36) %this) local_unnamed_addr #0 align 2 {
entry:
  %OutBufCur = getelementptr inbounds i8, ptr %this, i64 24
  %0 = load ptr, ptr %OutBufCur, align 8
  %OutBufStart = getelementptr inbounds i8, ptr %this, i64 8
  %1 = load ptr, ptr %OutBufStart, align 8
  %sub.ptr.lhs.cast = ptrtoint ptr %0 to i64
  %sub.ptr.rhs.cast = ptrtoint ptr %1 to i64
  %sub.ptr.sub = sub i64 %sub.ptr.lhs.cast, %sub.ptr.rhs.cast
  store ptr %1, ptr %OutBufCur, align 8
  %vtable = load ptr, ptr %this, align 8
  %vfn = getelementptr inbounds i8, ptr %vtable, i64 56
  %2 = load ptr, ptr %vfn, align 8
  tail call void %2(ptr noundef nonnull align 8 dereferenceable(36) %this, ptr noundef %1, i64 noundef %sub.ptr.sub) #26
  ret void
}